; Function Attrs: mustprogress nounwind uwtable
define hidden void @_ZN22SystemDictionaryShared25record_linking_constraintEP6SymbolP13InstanceKlass6HandleS4_(ptr noundef %0, ptr noundef %1, ptr %2, ptr %3) local_unnamed_addr #0 align 2 {
  %5 = getelementptr inbounds i8, ptr %1, i64 152
  %6 = load ptr, ptr %5, align 8
  %7 = getelementptr inbounds i8, ptr %6, i64 8
  %8 = load ptr, ptr %7, align 8
  %9 = icmp eq ptr %8, null
  br i1 %9, label %_ZNK5Klass12class_loaderEv.exit, label %10

10:                                               ; preds = %4
  %11 = load ptr, ptr @_ZN14AccessInternal15RuntimeDispatchILm548932EP7oopDescLNS_11BarrierTypeE2EE10_load_funcE, align 8
  %12 = tail call noundef ptr %11(ptr noundef nonnull %8) #18
  br label %_ZNK5Klass12class_loaderEv.exit

_ZNK5Klass12class_loaderEv.exit:                  ; preds = %4, %10
  %13 = phi ptr [ %12, %10 ], [ null, %4 ]
  %14 = tail call noundef zeroext i1 @_ZN16SystemDictionary22is_system_class_loaderEP7oopDesc(ptr noundef %13) #18
  br i1 %14, label %17, label %15

15:                                               ; preds = %_ZNK5Klass12class_loaderEv.exit
  %16 = tail call noundef zeroext i1 @_ZN16SystemDictionary24is_platform_class_loaderEP7oopDesc(ptr noundef %13) #18
  br i1 %16, label %17, label %35

17:                                               ; preds = %15, %_ZNK5Klass12class_loaderEv.exit
  %18 = load i8, ptr @_ZN9CDSConfig27_is_dumping_dynamic_archiveE, align 1
  %19 = trunc i8 %18 to i1
  br i1 %19, label %20, label %27

20:                                               ; preds = %17
  %21 = tail call align 8 ptr @llvm.threadlocal.address.p0(ptr align 8 @_ZN6Thread12_thr_currentE)
  %22 = load ptr, ptr %21, align 8
  %23 = load ptr, ptr %22, align 8
  %24 = getelementptr inbounds i8, ptr %23, i64 48
  %25 = load ptr, ptr %24, align 8
  %26 = tail call noundef zeroext i1 %25(ptr noundef nonnull align 8 dereferenceable(888) %22) #18
  br i1 %26, label %35, label %27

27:                                               ; preds = %20, %17
  %28 = load ptr, ptr @DumpTimeTable_lock, align 8
  %.not.i.i.i = icmp eq ptr %28, null
  br i1 %.not.i.i.i, label %_ZN11MutexLockerC2EP5MutexNS0_18SafepointCheckFlagE.exit.thread.i, label %31

_ZN11MutexLockerC2EP5MutexNS0_18SafepointCheckFlagE.exit.thread.i: ; preds = %27
  %29 = load ptr, ptr @_ZN22SystemDictionaryShared15_dumptime_tableE, align 8
  %30 = tail call noundef ptr @_ZN24DumpTimeSharedClassTable8get_infoEP13InstanceKlass(ptr noundef nonnull align 8 dereferenceable(127124) %29, ptr noundef nonnull %1) #18
  br label %_ZN22SystemDictionaryShared8get_infoEP13InstanceKlass.exit

31:                                               ; preds = %27
  tail call void @_ZN5Mutex28lock_without_safepoint_checkEv(ptr noundef nonnull align 8 dereferenceable(104) %28) #18
  %32 = load ptr, ptr @_ZN22SystemDictionaryShared15_dumptime_tableE, align 8
  %33 = tail call noundef ptr @_ZN24DumpTimeSharedClassTable8get_infoEP13InstanceKlass(ptr noundef nonnull align 8 dereferenceable(127124) %32, ptr noundef nonnull %1) #18
  tail call void @_ZN5Mutex6unlockEv(ptr noundef nonnull align 8 dereferenceable(104) %28) #18
  br label %_ZN22SystemDictionaryShared8get_infoEP13InstanceKlass.exit

_ZN22SystemDictionaryShared8get_infoEP13InstanceKlass.exit: ; preds = %_ZN11MutexLockerC2EP5MutexNS0_18SafepointCheckFlagE.exit.thread.i, %31
  %34 = phi ptr [ %30, %_ZN11MutexLockerC2EP5MutexNS0_18SafepointCheckFlagE.exit.thread.i ], [ %33, %31 ]
  tail call void @_ZN17DumpTimeClassInfo25record_linking_constraintEP6Symbol6HandleS2_(ptr noundef nonnull align 8 dereferenceable(72) %34, ptr noundef %0, ptr %2, ptr %3) #18
  br label %35

35:                                               ; preds = %20, %15, %_ZN22SystemDictionaryShared8get_infoEP13InstanceKlass.exit
  ret void
}